target datalayout = "e-m:e-p270:32:32-p271:32:32-p272:64:64-i64:64-i128:128-f80:128-n8:16:32:64-S128"
target triple = "x86_64-pc-linux-gnu"

%struct.bitmap_writer = type { ptr, ptr, ptr, ptr, ptr, ptr, ptr, i32, i32, %struct.string_list, ptr, i32, ptr, i32, [32 x i8] }
%struct.string_list = type { ptr, i64, i64, i8, ptr }
%struct.kh_oid_map = type { i32, i32, i32, i32, ptr, ptr, ptr }
%struct.object_id = type { [32 x i8], i32 }

; Function Attrs: inlinehint nounwind uwtable
define internal i32 @oideq(ptr noundef %0, ptr noundef %1) #3 {
  %3 = alloca ptr, align 8
  %4 = alloca ptr, align 8
  store ptr %0, ptr %3, align 8, !tbaa !70
  store ptr %1, ptr %4, align 8, !tbaa !70
  %5 = load ptr, ptr %3, align 8, !tbaa !70
  %6 = getelementptr inbounds nuw %struct.object_id, ptr %5, i32 0, i32 0
  %7 = getelementptr inbounds [32 x i8], ptr %6, i64 0, i64 0
  %8 = load ptr, ptr %4, align 8, !tbaa !70
  %9 = getelementptr inbounds nuw %struct.object_id, ptr %8, i32 0, i32 0
  %10 = getelementptr inbounds [32 x i8], ptr %9, i64 0, i64 0
  %11 = call i32 @memcmp(ptr noundef %7, ptr noundef %10, i64 noundef 32) #14
  %12 = icmp ne i32 %11, 0
  %13 = xor i1 %12, true
  %14 = zext i1 %13 to i32
  ret i32 %14
}

; Function Attrs: inlinehint nounwind uwtable
define internal i32 @oidhash(ptr noundef %0) #3 {
  %2 = alloca ptr, align 8
  %3 = alloca i32, align 4
  store ptr %0, ptr %2, align 8, !tbaa !70
  call void @llvm.lifetime.start.p0(i64 4, ptr %3) #12
  %4 = load ptr, ptr %2, align 8, !tbaa !70
  %5 = getelementptr inbounds nuw %struct.object_id, ptr %4, i32 0, i32 0
  %6 = getelementptr inbounds [32 x i8], ptr %5, i64 0, i64 0
  call void @llvm.memcpy.p0.p0.i64(ptr align 4 %3, ptr align 4 %6, i64 4, i1 false)
  %7 = load i32, ptr %3, align 4, !tbaa !29
  call void @llvm.lifetime.end.p0(i64 4, ptr %3) #12
  ret i32 %7
}

; Function Attrs: inlinehint nounwind uwtable
define internal i32 @oideq_by_value(ptr noundef byval(%struct.object_id) align 8 %0, ptr noundef byval(%struct.object_id) align 8 %1) #3 {
  %3 = call i32 @oideq(ptr noundef %0, ptr noundef %1)
  ret i32 %3
}

; Function Attrs: inlinehint nounwind uwtable
define internal i32 @oidhash_by_value(ptr noundef byval(%struct.object_id) align 8 %0) #3 {
  %2 = call i32 @oidhash(ptr noundef %0)
  ret i32 %2
}

; Function Attrs: inlinehint nounwind uwtable
define internal i32 @kh_get_oid_map(ptr noundef %0, ptr noundef byval(%struct.object_id) align 8 %1) #3 {
  %3 = alloca i32, align 4
  %4 = alloca ptr, align 8
  %5 = alloca i32, align 4
  %6 = alloca i32, align 4
  %7 = alloca i32, align 4
  %8 = alloca i32, align 4
  %9 = alloca i32, align 4
  %10 = alloca %struct.object_id, align 8
  %11 = alloca i32, align 4
  store ptr %0, ptr %4, align 8, !tbaa !49
  %12 = load ptr, ptr %4, align 8, !tbaa !49
  %13 = getelementptr inbounds nuw %struct.kh_oid_map, ptr %12, i32 0, i32 0
  %14 = load i32, ptr %13, align 8, !tbaa !30
  %15 = icmp ne i32 %14, 0
  br i1 %15, label %16, label %109

16:                                               ; preds = %2
  call void @llvm.lifetime.start.p0(i64 4, ptr %5) #12
  call void @llvm.lifetime.start.p0(i64 4, ptr %6) #12
  call void @llvm.lifetime.start.p0(i64 4, ptr %7) #12
  call void @llvm.lifetime.start.p0(i64 4, ptr %8) #12
  call void @llvm.lifetime.start.p0(i64 4, ptr %9) #12
  store i32 0, ptr %9, align 4, !tbaa !29
  %17 = load ptr, ptr %4, align 8, !tbaa !49
  %18 = getelementptr inbounds nuw %struct.kh_oid_map, ptr %17, i32 0, i32 0
  %19 = load i32, ptr %18, align 8, !tbaa !30
  %20 = sub i32 %19, 1
  store i32 %20, ptr %8, align 4, !tbaa !29
  %21 = call i32 @oidhash_by_value(ptr noundef byval(%struct.object_id) align 8 %1)
  store i32 %21, ptr %5, align 4, !tbaa !29
  %22 = load i32, ptr %5, align 4, !tbaa !29
  %23 = load i32, ptr %8, align 4, !tbaa !29
  %24 = and i32 %22, %23
  store i32 %24, ptr %6, align 4, !tbaa !29
  %25 = load i32, ptr %6, align 4, !tbaa !29
  store i32 %25, ptr %7, align 4, !tbaa !29
  br label %26

26:                                               ; preds = %84, %16
  %27 = load ptr, ptr %4, align 8, !tbaa !49
  %28 = getelementptr inbounds nuw %struct.kh_oid_map, ptr %27, i32 0, i32 4
  %29 = load ptr, ptr %28, align 8, !tbaa !34
  %30 = load i32, ptr %6, align 4, !tbaa !29
  %31 = lshr i32 %30, 4
  %32 = zext i32 %31 to i64
  %33 = getelementptr inbounds nuw i32, ptr %29, i64 %32
  %34 = load i32, ptr %33, align 4, !tbaa !29
  %35 = load i32, ptr %6, align 4, !tbaa !29
  %36 = and i32 %35, 15
  %37 = shl i32 %36, 1
  %38 = lshr i32 %34, %37
  %39 = and i32 %38, 2
  %40 = icmp ne i32 %39, 0
  br i1 %40, label %68, label %41

41:                                               ; preds = %26
  %42 = load ptr, ptr %4, align 8, !tbaa !49
  %43 = getelementptr inbounds nuw %struct.kh_oid_map, ptr %42, i32 0, i32 4
  %44 = load ptr, ptr %43, align 8, !tbaa !34
  %45 = load i32, ptr %6, align 4, !tbaa !29
  %46 = lshr i32 %45, 4
  %47 = zext i32 %46 to i64
  %48 = getelementptr inbounds nuw i32, ptr %44, i64 %47
  %49 = load i32, ptr %48, align 4, !tbaa !29
  %50 = load i32, ptr %6, align 4, !tbaa !29
  %51 = and i32 %50, 15
  %52 = shl i32 %51, 1
  %53 = lshr i32 %49, %52
  %54 = and i32 %53, 1
  %55 = icmp ne i32 %54, 0
  br i1 %55, label %66, label %56

56:                                               ; preds = %41
  %57 = load ptr, ptr %4, align 8, !tbaa !49
  %58 = getelementptr inbounds nuw %struct.kh_oid_map, ptr %57, i32 0, i32 5
  %59 = load ptr, ptr %58, align 8, !tbaa !73
  %60 = load i32, ptr %6, align 4, !tbaa !29
  %61 = zext i32 %60 to i64
  %62 = getelementptr inbounds nuw %struct.object_id, ptr %59, i64 %61
  call void @llvm.lifetime.start.p0(i64 36, ptr %10) #12
  call void @llvm.memcpy.p0.p0.i64(ptr align 8 %10, ptr align 4 %62, i64 36, i1 false), !tbaa.struct !71
  %63 = call i32 @oideq_by_value(ptr noundef byval(%struct.object_id) align 8 %10, ptr noundef byval(%struct.object_id) align 8 %1)
  call void @llvm.lifetime.end.p0(i64 36, ptr %10) #12
  %64 = icmp ne i32 %63, 0
  %65 = xor i1 %64, true
  br label %66

66:                                               ; preds = %56, %41
  %67 = phi i1 [ true, %41 ], [ %65, %56 ]
  br label %68

68:                                               ; preds = %66, %26
  %69 = phi i1 [ false, %26 ], [ %67, %66 ]
  br i1 %69, label %70, label %85

70:                                               ; preds = %68
  %71 = load i32, ptr %6, align 4, !tbaa !29
  %72 = load i32, ptr %9, align 4, !tbaa !29
  %73 = add i32 %72, 1
  store i32 %73, ptr %9, align 4, !tbaa !29
  %74 = add i32 %71, %73
  %75 = load i32, ptr %8, align 4, !tbaa !29
  %76 = and i32 %74, %75
  store i32 %76, ptr %6, align 4, !tbaa !29
  %77 = load i32, ptr %6, align 4, !tbaa !29
  %78 = load i32, ptr %7, align 4, !tbaa !29
  %79 = icmp eq i32 %77, %78
  br i1 %79, label %80, label %84

80:                                               ; preds = %70
  %81 = load ptr, ptr %4, align 8, !tbaa !49
  %82 = getelementptr inbounds nuw %struct.kh_oid_map, ptr %81, i32 0, i32 0
  %83 = load i32, ptr %82, align 8, !tbaa !30
  store i32 %83, ptr %3, align 4
  store i32 1, ptr %11, align 4
  br label %108

84:                                               ; preds = %70
  br label %26, !llvm.loop !74

85:                                               ; preds = %68
  %86 = load ptr, ptr %4, align 8, !tbaa !49
  %87 = getelementptr inbounds nuw %struct.kh_oid_map, ptr %86, i32 0, i32 4
  %88 = load ptr, ptr %87, align 8, !tbaa !34
  %89 = load i32, ptr %6, align 4, !tbaa !29
  %90 = lshr i32 %89, 4
  %91 = zext i32 %90 to i64
  %92 = getelementptr inbounds nuw i32, ptr %88, i64 %91
  %93 = load i32, ptr %92, align 4, !tbaa !29
  %94 = load i32, ptr %6, align 4, !tbaa !29
  %95 = and i32 %94, 15
  %96 = shl i32 %95, 1
  %97 = lshr i32 %93, %96
  %98 = and i32 %97, 3
  %99 = icmp ne i32 %98, 0
  br i1 %99, label %100, label %104

100:                                              ; preds = %85
  %101 = load ptr, ptr %4, align 8, !tbaa !49
  %102 = getelementptr inbounds nuw %struct.kh_oid_map, ptr %101, i32 0, i32 0
  %103 = load i32, ptr %102, align 8, !tbaa !30
  br label %106

104:                                              ; preds = %85
  %105 = load i32, ptr %6, align 4, !tbaa !29
  br label %106

106:                                              ; preds = %104, %100
  %107 = phi i32 [ %103, %100 ], [ %105, %104 ]
  store i32 %107, ptr %3, align 4
  store i32 1, ptr %11, align 4
  br label %108

108:                                              ; preds = %106, %80
  call void @llvm.lifetime.end.p0(i64 4, ptr %9) #12
  call void @llvm.lifetime.end.p0(i64 4, ptr %8) #12
  call void @llvm.lifetime.end.p0(i64 4, ptr %7) #12
  call void @llvm.lifetime.end.p0(i64 4, ptr %6) #12
  call void @llvm.lifetime.end.p0(i64 4, ptr %5) #12
  br label %110

109:                                              ; preds = %2
  store i32 0, ptr %3, align 4
  br label %110

110:                                              ; preds = %109, %108
  %111 = load i32, ptr %3, align 4
  ret i32 %111
}

; Function Attrs: nounwind uwtable
define dso_local i32 @bitmap_writer_has_bitmapped_object_id(ptr noundef %0, ptr noundef %1) #0 {
  %3 = alloca ptr, align 8
  %4 = alloca ptr, align 8
  %5 = alloca %struct.object_id, align 8
  store ptr %0, ptr %3, align 8, !tbaa !4
  store ptr %1, ptr %4, align 8, !tbaa !70
  %6 = load ptr, ptr %3, align 8, !tbaa !4
  %7 = getelementptr inbounds nuw %struct.bitmap_writer, ptr %6, i32 0, i32 4
  %8 = load ptr, ptr %7, align 8, !tbaa !13
  %9 = load ptr, ptr %4, align 8, !tbaa !70
  call void @llvm.lifetime.start.p0(i64 36, ptr %5) #12
  call void @llvm.memcpy.p0.p0.i64(ptr align 8 %5, ptr align 4 %9, i64 36, i1 false), !tbaa.struct !71
  %10 = call i32 @kh_get_oid_map(ptr noundef %8, ptr noundef byval(%struct.object_id) align 8 %5)
  call void @llvm.lifetime.end.p0(i64 36, ptr %5) #12
  %11 = load ptr, ptr %3, align 8, !tbaa !4
  %12 = getelementptr inbounds nuw %struct.bitmap_writer, ptr %11, i32 0, i32 4
  %13 = load ptr, ptr %12, align 8, !tbaa !13
  %14 = getelementptr inbounds nuw %struct.kh_oid_map, ptr %13, i32 0, i32 0
  %15 = load i32, ptr %14, align 8, !tbaa !30
  %16 = icmp ne i32 %10, %15
  %17 = zext i1 %16 to i32
  ret i32 %17
}