; Function Attrs: nofree nounwind memory(readwrite, inaccessiblemem: none) uwtable
define dso_local range(i32 0, 2) i32 @bitmap_writer_has_bitmapped_object_id(ptr noundef readonly captures(none) %0, ptr noundef readonly captures(none) %1) local_unnamed_addr #7 {
  %3 = alloca %struct.object_id, align 8
  %4 = alloca %struct.object_id, align 8
  %5 = getelementptr inbounds nuw i8, ptr %0, i64 32
  %6 = load ptr, ptr %5, align 8, !tbaa !4
  call void @llvm.lifetime.start.p0(i64 36, ptr nonnull %4)
  call void @llvm.memcpy.p0.p0.i64(ptr noundef nonnull align 8 dereferenceable(36) %4, ptr noundef nonnull align 4 dereferenceable(36) %1, i64 36, i1 false)
  %7 = load i32, ptr %6, align 8, !tbaa !30
  %.not.i = icmp eq i32 %7, 0
  br i1 %.not.i, label %kh_get_oid_map.exit, label %8

8:                                                ; preds = %2
  %9 = add i32 %7, -1
  %.val.i = load i32, ptr %4, align 8
  %10 = and i32 %.val.i, %9
  %11 = getelementptr inbounds nuw i8, ptr %6, i64 16
  %12 = load ptr, ptr %11, align 8, !tbaa !24
  %13 = getelementptr inbounds nuw i8, ptr %6, i64 24
  br label %14

14:                                               ; preds = %.critedge2.i, %8
  %.027.i = phi i32 [ %10, %8 ], [ %31, %.critedge2.i ]
  %.0.i = phi i32 [ 0, %8 ], [ %29, %.critedge2.i ]
  %15 = lshr i32 %.027.i, 4
  %16 = zext nneg i32 %15 to i64
  %17 = getelementptr inbounds nuw i32, ptr %12, i64 %16
  %18 = load i32, ptr %17, align 4, !tbaa !31
  %19 = shl i32 %.027.i, 1
  %20 = and i32 %19, 30
  %21 = lshr i32 %18, %20
  %22 = and i32 %21, 2
  %.not30.i = icmp eq i32 %22, 0
  br i1 %.not30.i, label %23, label %.critedge.i

23:                                               ; preds = %14
  %24 = and i32 %21, 1
  %.not31.i = icmp eq i32 %24, 0
  br i1 %.not31.i, label %25, label %.critedge2.i

25:                                               ; preds = %23
  %26 = load ptr, ptr %13, align 8, !tbaa !28
  %27 = zext i32 %.027.i to i64
  %28 = getelementptr inbounds nuw %struct.object_id, ptr %26, i64 %27
  call void @llvm.lifetime.start.p0(i64 36, ptr nonnull %3) #19
  call void @llvm.memcpy.p0.p0.i64(ptr noundef nonnull align 8 dereferenceable(36) %3, ptr noundef nonnull align 4 dereferenceable(36) %28, i64 36, i1 false), !tbaa.struct !59
  %bcmp.i.i.i = call i32 @bcmp(ptr noundef nonnull readonly align 8 dereferenceable(32) %3, ptr noundef nonnull readonly align 8 dereferenceable(32) %4, i64 32)
  %.not.i.i.not.i = icmp eq i32 %bcmp.i.i.i, 0
  call void @llvm.lifetime.end.p0(i64 36, ptr nonnull %3) #19
  br i1 %.not.i.i.not.i, label %.critedge.i, label %.critedge2.i

.critedge2.i:                                     ; preds = %25, %23
  %29 = add i32 %.0.i, 1
  %30 = add i32 %29, %.027.i
  %31 = and i32 %30, %9
  %32 = icmp eq i32 %31, %10
  br i1 %32, label %kh_get_oid_map.exit, label %14, !llvm.loop !61

.critedge.i:                                      ; preds = %25, %14
  %33 = shl nuw i32 3, %20
  %34 = and i32 %33, %18
  %.not33.i = icmp eq i32 %34, 0
  %spec.select.i = select i1 %.not33.i, i32 %.027.i, i32 %7
  br label %kh_get_oid_map.exit

kh_get_oid_map.exit:                              ; preds = %.critedge2.i, %2, %.critedge.i
  %.1.i = phi i32 [ 0, %2 ], [ %spec.select.i, %.critedge.i ], [ %7, %.critedge2.i ]
  call void @llvm.lifetime.end.p0(i64 36, ptr nonnull %4)
  %35 = icmp ne i32 %.1.i, %7
  %36 = zext i1 %35 to i32
  ret i32 %36
}